; Function Attrs: mustprogress nounwind uwtable
define hidden void @_ZN18G1ConcurrentRefineC2EP8G1Policy(ptr noundef nonnull align 8 dereferenceable(136) %0, ptr noundef %1) unnamed_addr #0 align 2 {
  store ptr %1, ptr %0, align 8
  %3 = getelementptr inbounds i8, ptr %0, i64 8
  store volatile i32 0, ptr %3, align 8
  %4 = getelementptr inbounds i8, ptr %0, i64 16
  store i64 -1, ptr %4, align 8
  %5 = getelementptr inbounds i8, ptr %0, i64 24
  %6 = getelementptr inbounds i8, ptr %0, i64 64
  tail call void @llvm.memset.p0.i64(ptr noundef nonnull align 8 dereferenceable(33) %5, i8 0, i64 33, i1 false)
  tail call void @_ZN31G1ConcurrentRefineThreadsNeededC1EP8G1Policyd(ptr noundef nonnull align 8 dereferenceable(36) %6, ptr noundef %1, double noundef 5.000000e+01) #17
  %7 = getelementptr inbounds i8, ptr %0, i64 104
  %8 = load i32, ptr @G1ConcRefinementThreads, align 4
  store ptr null, ptr %7, align 8
  %9 = getelementptr inbounds i8, ptr %0, i64 112
  %10 = icmp eq i32 %8, 0
  br i1 %10, label %_ZN18GrowableArrayCHeapIP24G1ConcurrentRefineThreadL8MEMFLAGS5EE8allocateEiS2_.exit.thread.i.i, label %_ZN18GrowableArrayCHeapIP24G1ConcurrentRefineThreadL8MEMFLAGS5EE8allocateEiS2_.exit.i.i

_ZN18GrowableArrayCHeapIP24G1ConcurrentRefineThreadL8MEMFLAGS5EE8allocateEiS2_.exit.thread.i.i: ; preds = %2
  tail call void @llvm.memset.p0.i64(ptr noundef nonnull align 8 dereferenceable(16) %9, i8 0, i64 16, i1 false)
  br label %_ZN31G1ConcurrentRefineThreadControlC2Ej.exit

_ZN18GrowableArrayCHeapIP24G1ConcurrentRefineThreadL8MEMFLAGS5EE8allocateEiS2_.exit.i.i: ; preds = %2
  %11 = tail call noundef ptr @_ZN27GrowableArrayCHeapAllocator8allocateEii8MEMFLAGS(i32 noundef %8, i32 noundef 8, i8 noundef zeroext 5) #17
  store i32 0, ptr %9, align 8
  %12 = getelementptr inbounds i8, ptr %0, i64 116
  store i32 %8, ptr %12, align 4
  %13 = getelementptr inbounds i8, ptr %0, i64 120
  store ptr %11, ptr %13, align 8
  %14 = icmp sgt i32 %8, 0
  br i1 %14, label %.lr.ph.preheader.i.i.i, label %_ZN31G1ConcurrentRefineThreadControlC2Ej.exit

.lr.ph.preheader.i.i.i:                           ; preds = %_ZN18GrowableArrayCHeapIP24G1ConcurrentRefineThreadL8MEMFLAGS5EE8allocateEiS2_.exit.i.i
  %15 = zext nneg i32 %8 to i64
  %16 = shl nuw nsw i64 %15, 3
  tail call void @llvm.memset.p0.i64(ptr align 8 %11, i8 0, i64 %16, i1 false)
  br label %_ZN31G1ConcurrentRefineThreadControlC2Ej.exit

_ZN31G1ConcurrentRefineThreadControlC2Ej.exit:    ; preds = %_ZN18GrowableArrayCHeapIP24G1ConcurrentRefineThreadL8MEMFLAGS5EE8allocateEiS2_.exit.thread.i.i, %_ZN18GrowableArrayCHeapIP24G1ConcurrentRefineThreadL8MEMFLAGS5EE8allocateEiS2_.exit.i.i, %.lr.ph.preheader.i.i.i
  %17 = getelementptr inbounds i8, ptr %0, i64 128
  %18 = load ptr, ptr @_ZN10BarrierSet12_barrier_setE, align 8
  %19 = getelementptr inbounds i8, ptr %18, i64 1664
  store ptr %19, ptr %17, align 8
  ret void
}